(dp0
I2
I0
sI7
I1
sI10
I2
sI11
I3
sI12
I4
sI20
I5
sI22
I6
sI23
I7
sI27
I8
sI28
I9
sI30
I10
sI32
I11
sI35
I12
sI37
I13
sI42
I14
sI43
I15
sI46
I16
sI47
I17
sI48
I18
sI52
I19
sI53
I20
sI56
I21
sI57
I22
sI59
I23
sI64
I24
sI65
I25
sI67
I26
sI68
I27
sI69
I28
sI70
I29
sI76
I30
sI77
I31
sI79
I32
sI81
I33
sI82
I34
sI84
I35
sI86
I36
sI88
I37
sI90
I38
sI93
I39
sI95
I40
sI97
I41
sI98
I42
sI99
I43
sI100
I44
sI104
I45
sI105
I46
sI106
I47
sI107
I48
sI108
I49
sI110
I50
sI111
I51
sI114
I52
sI115
I53
sI116
I54
sI117
I55
sI118
I56
sI121
I57
sI122
I58
sI123
I59
sI125
I60
sI127
I61
sI129
I62
sI132
I63
sI134
I64
sI135
I65
sI136
I66
sI139
I67
sI140
I68
sI141
I69
sI142
I70
sI143
I71
sI148
I72
sI149
I73
sI150
I74
sI151
I75
sI158
I76
sI159
I77
sI160
I78
sI162
I79
sI164
I80
sI166
I81
sI167
I82
sI169
I83
sI172
I84
sI173
I85
sI175
I86
sI176
I87
sI177
I88
sI178
I89
sI179
I90
sI180
I91
sI181
I92
sI184
I93
sI185
I94
sI190
I95
sI193
I96
sI195
I97
sI197
I98
sI199
I99
sI201
I100
sI202
I101
sI204
I102
sI206
I103
sI208
I104
sI209
I105
sI211
I106
sI212
I107
sI214
I108
sI216
I109
sI221
I110
sI222
I111
sI223
I112
sI224
I113
sI225
I114
sI232
I115
sI234
I116
sI236
I117
sI237
I118
sI239
I119
sI241
I120
sI242
I121
sI243
I122
sI245
I123
sI248
I124
sI249
I125
sI250
I126
sI251
I127
sI254
I128
sI255
I129
sI259
I130
sI261
I131
sI264
I132
sI266
I133
sI268
I134
sI269
I135
sI272
I136
sI273
I137
sI276
I138
sI277
I139
sI279
I140
sI281
I141
sI282
I142
sI287
I143
sI296
I144
sI297
I145
sI298
I146
sI299
I147
sI301
I148
sI303
I149
sI306
I150
sI307
I151
sI308
I152
sI309
I153
sI313
I154
sI314
I155
sI317
I156
sI318
I157
sI321
I158
sI323
I159
sI324
I160
sI325
I161
sI326
I162
sI327
I163
sI328
I164
sI331
I165
sI332
I166
sI333
I167
sI335
I168
sI338
I169
sI339
I170
sI340
I171
sI341
I172
sI344
I173
sI347
I174
sI348
I175
sI349
I176
sI350
I177
sI352
I178
sI354
I179
sI357
I180
sI358
I181
sI359
I182
sI361
I183
sI367
I184
sI368
I185
sI369
I186
sI370
I187
sI371
I188
sI374
I189
sI375
I190
sI376
I191
sI377
I192
sI379
I193
sI380
I194
sI382
I195
sI383
I196
sI384
I197
sI385
I198
sI386
I199
sI389
I200
sI390
I201
sI392
I202
sI393
I203
sI394
I204
sI397
I205
sI398
I206
sI399
I207
sI402
I208
sI403
I209
sI404
I210
sI407
I211
sI408
I212
sI409
I213
sI410
I214
sI411
I215
sI413
I216
sI414
I217
sI415
I218
sI419
I219
sI420
I220
sI421
I221
sI423
I222
sI424
I223
sI427
I224
sI429
I225
sI430
I226
sI432
I227
sI433
I228
sI434
I229
sI435
I230
sI437
I231
sI441
I232
sI442
I233
sI444
I234
sI445
I235
sI446
I236
sI449
I237
sI450
I238
sI451
I239
sI456
I240
sI457
I241
sI459
I242
sI464
I243
sI466
I244
sI468
I245
sI470
I246
sI472
I247
sI475
I248
sI477
I249
sI480
I250
sI481
I251
sI482
I252
sI484
I253
sI485
I254
sI486
I255
sI491
I256
sI494
I257
sI496
I258
sI499
I259
sI500
I260
sI503
I261
sI508
I262
sI509
I263
sI513
I264
sI515
I265
sI516
I266
sI517
I267
sI518
I268
sI519
I269
sI522
I270
sI524
I271
sI525
I272
sI528
I273
sI529
I274
sI534
I275
sI536
I276
sI537
I277
sI539
I278
sI540
I279
sI545
I280
sI546
I281
sI547
I282
sI549
I283
sI551
I284
sI552
I285
sI554
I286
sI555
I287
sI556
I288
sI557
I289
sI558
I290
sI563
I291
sI564
I292
sI565
I293
sI566
I294
sI570
I295
sI571
I296
sI572
I297
sI573
I298
sI575
I299
sI579
I300
sI581
I301
sI584
I302
sI586
I303
sI588
I304
sI589
I305
sI592
I306
sI593
I307
sI594
I308
sI596
I309
sI597
I310
sI599
I311
sI603
I312
sI604
I313
sI605
I314
sI606
I315
sI611
I316
sI612
I317
sI613
I318
sI614
I319
sI615
I320
sI616
I321
sI619
I322
sI620
I323
sI622
I324
sI623
I325
sI628
I326
sI629
I327
sI630
I328
sI633
I329
sI635
I330
sI636
I331
sI637
I332
sI639
I333
sI640
I334
sI641
I335
sI642
I336
sI645
I337
sI647
I338
sI648
I339
sI649
I340
sI652
I341
sI653
I342
sI655
I343
sI656
I344
sI657
I345
sI658
I346
sI659
I347
sI660
I348
sI661
I349
sI662
I350
sI663
I351
sI665
I352
sI666
I353
sI667
I354
sI669
I355
sI670
I356
sI673
I357
sI674
I358
sI676
I359
sI677
I360
sI681
I361
sI682
I362
sI683
I363
sI685
I364
sI688
I365
sI689
I366
sI696
I367
sI697
I368
sI700
I369
sI701
I370
sI702
I371
sI703
I372
sI704
I373
sI705
I374
sI706
I375
sI707
I376
sI708
I377
sI709
I378
sI711
I379
sI712
I380
sI714
I381
sI718
I382
sI724
I383
sI726
I384
sI729
I385
sI730
I386
sI733
I387
sI734
I388
sI738
I389
sI739
I390
sI741
I391
sI742
I392
sI744
I393
sI748
I394
sI749
I395
sI752
I396
sI754
I397
sI755
I398
sI757
I399
sI759
I400
sI760
I401
sI761
I402
sI762
I403
sI765
I404
sI766
I405
sI767
I406
sI772
I407
sI773
I408
sI774
I409
sI779
I410
sI780
I411
sI781
I412
sI782
I413
sI785
I414
sI787
I415
sI788
I416
sI792
I417
sI793
I418
sI795
I419
sI796
I420
sI802
I421
sI803
I422
sI806
I423
sI809
I424
sI810
I425
sI814
I426
sI816
I427
sI818
I428
sI820
I429
sI821
I430
sI823
I431
sI826
I432
sI828
I433
sI830
I434
sI832
I435
sI833
I436
sI837
I437
sI839
I438
sI840
I439
sI842
I440
sI843
I441
sI844
I442
sI848
I443
sI849
I444
sI850
I445
sI851
I446
sI854
I447
sI855
I448
sI857
I449
sI859
I450
sI862
I451
sI863
I452
sI864
I453
sI868
I454
sI871
I455
sI872
I456
sI875
I457
sI876
I458
sI879
I459
sI882
I460
sI883
I461
sI885
I462
sI886
I463
sI887
I464
sI890
I465
sI891
I466
sI892
I467
sI893
I468
sI894
I469
sI895
I470
sI896
I471
sI898
I472
sI900
I473
sI901
I474
sI902
I475
sI903
I476
sI904
I477
sI905
I478
sI907
I479
sI914
I480
sI915
I481
sI917
I482
sI919
I483
sI926
I484
sI930
I485
sI933
I486
sI936
I487
sI939
I488
sI940
I489
sI941
I490
sI942
I491
sI943
I492
sI945
I493
sI946
I494
sI947
I495
sI948
I496
sI952
I497
sI953
I498
sI954
I499
sI955
I500
sI957
I501
sI958
I502
sI961
I503
sI962
I504
sI963
I505
sI967
I506
sI969
I507
sI970
I508
sI971
I509
sI972
I510
sI973
I511
sI975
I512
sI976
I513
sI979
I514
sI982
I515
sI984
I516
sI986
I517
sI987
I518
sI988
I519
sI990
I520
sI991
I521
sI992
I522
sI994
I523
sI995
I524
sI997
I525
sI998
I526
sI999
I527
sI1000
I528
sI1001
I529
sI1002
I530
sI1003
I531
sI1004
I532
sI1007
I533
sI1010
I534
sI1011
I535
sI1012
I536
sI1017
I537
sI1018
I538
sI1019
I539
sI1023
I540
sI1025
I541
sI1027
I542
sI1030
I543
sI1031
I544
sI1032
I545
sI1033
I546
sI1038
I547
sI1039
I548
sI1041
I549
sI1045
I550
sI1048
I551
sI1049
I552
sI1051
I553
sI1052
I554
sI1055
I555
sI1056
I556
sI1066
I557
sI1071
I558
sI1072
I559
sI1075
I560
sI1076
I561
sI1078
I562
sI1079
I563
sI1080
I564
sI1081
I565
sI1086
I566
sI1088
I567
sI1091
I568
sI1093
I569
sI1094
I570
sI1096
I571
sI1097
I572
sI1098
I573
sI1099
I574
sI1100
I575
sI1101
I576
sI1106
I577
sI1107
I578
sI1110
I579
sI1111
I580
sI1112
I581
sI1113
I582
sI1114
I583
sI1115
I584
sI1116
I585
sI1117
I586
sI1123
I587
sI1124
I588
sI1126
I589
sI1127
I590
sI1129
I591
sI1132
I592
sI1134
I593
sI1135
I594
sI1138
I595
sI1140
I596
sI1142
I597
sI1152
I598
sI1157
I599
sI1158
I600
sI1159
I601
sI1162
I602
sI1165
I603
sI1167
I604
sI1168
I605
sI1169
I606
sI1173
I607
sI1176
I608
sI1177
I609
sI1178
I610
sI1179
I611
sI1189
I612
sI1193
I613
sI1197
I614
sI1198
I615
sI1200
I616
sI1201
I617
sI1204
I618
sI1206
I619
sI1213
I620
sI1217
I621
sI1218
I622
sI1219
I623
sI1220
I624
sI1227
I625
sI1230
I626
sI1231
I627
sI1232
I628
sI1234
I629
sI1235
I630
sI1237
I631
sI1238
I632
sI1240
I633
sI1242
I634
sI1243
I635
sI1244
I636
sI1250
I637
sI1252
I638
sI1253
I639
sI1254
I640
sI1257
I641
sI1258
I642
sI1260
I643
sI1261
I644
sI1263
I645
sI1266
I646
sI1269
I647
sI1275
I648
sI1278
I649
sI1281
I650
sI1286
I651
sI1289
I652
sI1291
I653
sI1292
I654
sI1294
I655
sI1295
I656
sI1296
I657
sI1297
I658
sI1300
I659
sI1303
I660
sI1304
I661
sI1309
I662
sI1313
I663
sI1315
I664
sI1316
I665
sI1318
I666
sI1320
I667
sI1321
I668
sI1325
I669
sI1326
I670
sI1327
I671
sI1330
I672
sI1331
I673
sI1332
I674
sI1334
I675
sI1335
I676
sI1336
I677
sI1338
I678
sI1339
I679
sI1341
I680
sI1343
I681
sI1344
I682
sI1346
I683
sI1350
I684
sI1353
I685
sI1358
I686
sI1363
I687
sI1364
I688
sI1365
I689
sI1368
I690
sI1372
I691
sI1373
I692
sI1379
I693
sI1380
I694
sI1381
I695
sI1385
I696
sI1386
I697
sI1389
I698
sI1391
I699
sI1392
I700
sI1393
I701
sI1400
I702
sI1402
I703
sI1404
I704
sI1405
I705
sI1406
I706
sI1407
I707
sI1408
I708
sI1409
I709
sI1411
I710
sI1415
I711
sI1420
I712
sI1421
I713
sI1422
I714
sI1426
I715
sI1427
I716
sI1428
I717
sI1430
I718
sI1432
I719
sI1433
I720
sI1434
I721
sI1437
I722
sI1442
I723
sI1443
I724
sI1445
I725
sI1447
I726
sI1449
I727
sI1451
I728
sI1453
I729
sI1454
I730
sI1455
I731
sI1458
I732
sI1463
I733
sI1464
I734
sI1466
I735
sI1467
I736
sI1469
I737
sI1470
I738
sI1471
I739
sI1473
I740
sI1474
I741
sI1475
I742
sI1479
I743
sI1480
I744
sI1487
I745
sI1489
I746
sI1492
I747
sI1495
I748
sI1496
I749
sI1500
I750
s.